; Function Attrs: mustprogress nounwind uwtable
define internal fastcc void @_ZN12_GLOBAL__N_116FunctionCompiler18compileVectorFCeilEN8WasmEdge4LLVM4TypeE(ptr noundef nonnull align 8 dereferenceable(200) %0, i64 %.0.val) unnamed_addr #0 align 2 {
  %2 = alloca %"class.WasmEdge::LLVM::Value", align 8
  %3 = alloca %"class.WasmEdge::LLVM::Value", align 8
  call void @llvm.lifetime.start.p0(i64 8, ptr nonnull %3)
  %4 = getelementptr inbounds nuw i8, ptr %0, i64 192
  %5 = getelementptr inbounds nuw i8, ptr %0, i64 48
  %6 = load ptr, ptr %5, align 8
  %7 = getelementptr inbounds i8, ptr %6, i64 -8
  %8 = load i64, ptr %7, align 8
  %9 = inttoptr i64 %8 to ptr
  %10 = inttoptr i64 %.0.val to ptr
  %11 = load ptr, ptr %4, align 8, !noalias !5886
  %12 = tail call ptr @LLVMBuildBitCast(ptr noundef %11, ptr noundef %9, ptr noundef %10, ptr noundef nonnull @.str.11) #16, !noalias !5886
  %13 = ptrtoint ptr %12 to i64
  call void @llvm.lifetime.start.p0(i64 8, ptr nonnull %2)
  %14 = load i32, ptr @_ZN8WasmEdge4LLVM4Core4CeilE, align 4, !noalias !5889
  %15 = icmp ne i32 %14, 0
  tail call void @llvm.assume(i1 %15)
  store i64 %13, ptr %2, align 8, !noalias !5889
  call void @_ZN8WasmEdge4LLVM7Builder20createUnaryIntrinsicEjNS0_5ValueEPKc(ptr dead_on_unwind nonnull writable sret(%"class.WasmEdge::LLVM::Value") align 8 %3, ptr noundef nonnull align 8 dereferenceable(8) %4, i32 noundef %14, ptr noundef nonnull %2, ptr noundef nonnull @.str.11) #16
  call void @llvm.lifetime.end.p0(i64 8, ptr nonnull %2)
  %16 = load ptr, ptr %0, align 8
  %17 = getelementptr inbounds nuw i8, ptr %16, i64 176
  %18 = load i64, ptr %17, align 8
  %19 = inttoptr i64 %18 to ptr
  %20 = load ptr, ptr %4, align 8, !noalias !5892
  %21 = load ptr, ptr %3, align 8, !noalias !5892
  %22 = call ptr @LLVMBuildBitCast(ptr noundef %20, ptr noundef %21, ptr noundef %19, ptr noundef nonnull @.str.11) #16, !noalias !5892
  %23 = load ptr, ptr %5, align 8
  %24 = getelementptr inbounds i8, ptr %23, i64 -8
  store ptr %22, ptr %24, align 8
  call void @llvm.lifetime.end.p0(i64 8, ptr nonnull %3)
  ret void
}